SF:/home/acleveland/repo/telegram-notifications/src/api.rs
FN:70,_RNvXs_NtCsiY43c7xbNeL_22telegram_notifications3apiNtB4_12InfoResponseNtNtCs1p5UDGgVI4d_4core7default7Default7default
FN:45,_RNvMNtCsiY43c7xbNeL_22telegram_notifications3apiNtB2_13ErrorResponse9with_code
FN:76,_RNvMs0_NtCsiY43c7xbNeL_22telegram_notifications3apiNtB5_12InfoResponse3new
FN:70,_RNvXs_NtCskJgHELm9BI9_22telegram_notifications3apiNtB4_12InfoResponseNtNtCs1p5UDGgVI4d_4core7default7Default7default
FN:252,_RNvNtNtCskJgHELm9BI9_22telegram_notifications3api5testss_27test_info_response_creation
FN:215,_RNvNtNtCskJgHELm9BI9_22telegram_notifications3api5testss_29test_error_response_with_code
FN:292,_RNvNtNtCskJgHELm9BI9_22telegram_notifications3api5testss_32test_endpoint_info_serialization
FN:279,_RNvNtNtCskJgHELm9BI9_22telegram_notifications3api5testss_32test_info_response_serialization
FN:224,_RNvNtNtCskJgHELm9BI9_22telegram_notifications3api5testss_33test_error_response_serialization
FN:178,_RNvNtNtCskJgHELm9BI9_22telegram_notifications3api5testss_34test_health_response_serialization
FN:146,_RNvNtNtCskJgHELm9BI9_22telegram_notifications3api5testss_45test_send_notification_response_serialization
FN:236,_RNvNtNtCskJgHELm9BI9_22telegram_notifications3api5testss_46test_error_response_serialization_without_code
FN:139,_RNvNtNtCskJgHELm9BI9_22telegram_notifications3api5testss_50test_send_notification_request_empty_message_fails
FN:198,_RNvNtNtCskJgHELm9BI9_22telegram_notifications3api5testss_51test_health_response_serialization_without_username
FN:123,_RNvNtNtCskJgHELm9BI9_22telegram_notifications3api5testss_51test_send_notification_request_deserialization_full
FN:112,_RNvNtNtCskJgHELm9BI9_22telegram_notifications3api5testss_54test_send_notification_request_deserialization_minimal
FN:162,_RNvNtNtCskJgHELm9BI9_22telegram_notifications3api5testss_64test_send_notification_response_serialization_without_message_id
FN:45,_RNvMNtCskJgHELm9BI9_22telegram_notifications3apiNtB2_13ErrorResponse9with_code
FN:76,_RNvMs0_NtCskJgHELm9BI9_22telegram_notifications3apiNtB5_12InfoResponse3new
FN:70,_RNvXs_NtCs68a4HstG1A7_22telegram_notifications3apiNtB4_12InfoResponseNtNtCs1p5UDGgVI4d_4core7default7Default7default
FN:252,_RNvNtNtCs68a4HstG1A7_22telegram_notifications3api5testss_27test_info_response_creation
FN:215,_RNvNtNtCs68a4HstG1A7_22telegram_notifications3api5testss_29test_error_response_with_code
FN:292,_RNvNtNtCs68a4HstG1A7_22telegram_notifications3api5testss_32test_endpoint_info_serialization
FN:279,_RNvNtNtCs68a4HstG1A7_22telegram_notifications3api5testss_32test_info_response_serialization
FN:224,_RNvNtNtCs68a4HstG1A7_22telegram_notifications3api5testss_33test_error_response_serialization
FN:178,_RNvNtNtCs68a4HstG1A7_22telegram_notifications3api5testss_34test_health_response_serialization
FN:146,_RNvNtNtCs68a4HstG1A7_22telegram_notifications3api5testss_45test_send_notification_response_serialization
FN:236,_RNvNtNtCs68a4HstG1A7_22telegram_notifications3api5testss_46test_error_response_serialization_without_code
FN:139,_RNvNtNtCs68a4HstG1A7_22telegram_notifications3api5testss_50test_send_notification_request_empty_message_fails
FN:198,_RNvNtNtCs68a4HstG1A7_22telegram_notifications3api5testss_51test_health_response_serialization_without_username
FN:123,_RNvNtNtCs68a4HstG1A7_22telegram_notifications3api5testss_51test_send_notification_request_deserialization_full
FN:112,_RNvNtNtCs68a4HstG1A7_22telegram_notifications3api5testss_54test_send_notification_request_deserialization_minimal
FN:162,_RNvNtNtCs68a4HstG1A7_22telegram_notifications3api5testss_64test_send_notification_response_serialization_without_message_id
FN:45,_RNvMNtCs68a4HstG1A7_22telegram_notifications3apiNtB2_13ErrorResponse9with_code
FN:76,_RNvMs0_NtCs68a4HstG1A7_22telegram_notifications3apiNtB5_12InfoResponse3new
FNDA:0,_RNvXs_NtCsiY43c7xbNeL_22telegram_notifications3apiNtB4_12InfoResponseNtNtCs1p5UDGgVI4d_4core7default7Default7default
FNDA:0,_RNvMNtCsiY43c7xbNeL_22telegram_notifications3apiNtB2_13ErrorResponse9with_code
FNDA:0,_RNvMs0_NtCsiY43c7xbNeL_22telegram_notifications3apiNtB5_12InfoResponse3new
FNDA:0,_RNvXs_NtCskJgHELm9BI9_22telegram_notifications3apiNtB4_12InfoResponseNtNtCs1p5UDGgVI4d_4core7default7Default7default
FNDA:1,_RNvNtNtCskJgHELm9BI9_22telegram_notifications3api5testss_27test_info_response_creation
FNDA:1,_RNvNtNtCskJgHELm9BI9_22telegram_notifications3api5testss_29test_error_response_with_code
FNDA:1,_RNvNtNtCskJgHELm9BI9_22telegram_notifications3api5testss_32test_endpoint_info_serialization
FNDA:1,_RNvNtNtCskJgHELm9BI9_22telegram_notifications3api5testss_32test_info_response_serialization
FNDA:1,_RNvNtNtCskJgHELm9BI9_22telegram_notifications3api5testss_33test_error_response_serialization
FNDA:1,_RNvNtNtCskJgHELm9BI9_22telegram_notifications3api5testss_34test_health_response_serialization
FNDA:1,_RNvNtNtCskJgHELm9BI9_22telegram_notifications3api5testss_45test_send_notification_response_serialization
FNDA:1,_RNvNtNtCskJgHELm9BI9_22telegram_notifications3api5testss_46test_error_response_serialization_without_code
FNDA:1,_RNvNtNtCskJgHELm9BI9_22telegram_notifications3api5testss_50test_send_notification_request_empty_message_fails
FNDA:1,_RNvNtNtCskJgHELm9BI9_22telegram_notifications3api5testss_51test_health_response_serialization_without_username
FNDA:1,_RNvNtNtCskJgHELm9BI9_22telegram_notifications3api5testss_51test_send_notification_request_deserialization_full
FNDA:1,_RNvNtNtCskJgHELm9BI9_22telegram_notifications3api5testss_54test_send_notification_request_deserialization_minimal
FNDA:1,_RNvNtNtCskJgHELm9BI9_22telegram_notifications3api5testss_64test_send_notification_response_serialization_without_message_id
FNDA:2,_RNvMNtCskJgHELm9BI9_22telegram_notifications3apiNtB2_13ErrorResponse9with_code
FNDA:2,_RNvMs0_NtCskJgHELm9BI9_22telegram_notifications3apiNtB5_12InfoResponse3new
FNDA:0,_RNvXs_NtCs68a4HstG1A7_22telegram_notifications3apiNtB4_12InfoResponseNtNtCs1p5UDGgVI4d_4core7default7Default7default
FNDA:1,_RNvNtNtCs68a4HstG1A7_22telegram_notifications3api5testss_27test_info_response_creation
FNDA:1,_RNvNtNtCs68a4HstG1A7_22telegram_notifications3api5testss_29test_error_response_with_code
FNDA:1,_RNvNtNtCs68a4HstG1A7_22telegram_notifications3api5testss_32test_endpoint_info_serialization
FNDA:1,_RNvNtNtCs68a4HstG1A7_22telegram_notifications3api5testss_32test_info_response_serialization
FNDA:1,_RNvNtNtCs68a4HstG1A7_22telegram_notifications3api5testss_33test_error_response_serialization
FNDA:1,_RNvNtNtCs68a4HstG1A7_22telegram_notifications3api5testss_34test_health_response_serialization
FNDA:1,_RNvNtNtCs68a4HstG1A7_22telegram_notifications3api5testss_45test_send_notification_response_serialization
FNDA:1,_RNvNtNtCs68a4HstG1A7_22telegram_notifications3api5testss_46test_error_response_serialization_without_code
FNDA:1,_RNvNtNtCs68a4HstG1A7_22telegram_notifications3api5testss_50test_send_notification_request_empty_message_fails
FNDA:1,_RNvNtNtCs68a4HstG1A7_22telegram_notifications3api5testss_51test_health_response_serialization_without_username
FNDA:1,_RNvNtNtCs68a4HstG1A7_22telegram_notifications3api5testss_51test_send_notification_request_deserialization_full
FNDA:1,_RNvNtNtCs68a4HstG1A7_22telegram_notifications3api5testss_54test_send_notification_request_deserialization_minimal
FNDA:1,_RNvNtNtCs68a4HstG1A7_22telegram_notifications3api5testss_64test_send_notification_response_serialization_without_message_id
FNDA:2,_RNvMNtCs68a4HstG1A7_22telegram_notifications3apiNtB2_13ErrorResponse9with_code
FNDA:2,_RNvMs0_NtCs68a4HstG1A7_22telegram_notifications3apiNtB5_12InfoResponse3new
FNF:16
FNH:15
DA:45,4
DA:46,4
DA:47,4
DA:48,4
DA:49,4
DA:50,4
DA:51,4
DA:70,0
DA:71,0
DA:72,0
DA:76,4
DA:77,4
DA:78,4
DA:79,4
DA:80,4
DA:81,4
DA:82,4
DA:83,4
DA:84,4
DA:85,4
DA:86,4
DA:87,4
DA:88,4
DA:89,4
DA:90,4
DA:91,4
DA:92,4
DA:93,4
DA:94,4
DA:95,4
DA:96,4
DA:97,4
DA:98,4
DA:99,4
DA:100,4
DA:101,4
DA:102,4
DA:103,4
DA:104,4
DA:112,2
DA:113,2
DA:114,2
DA:116,2
DA:117,2
DA:118,2
DA:119,2
DA:120,2
DA:123,2
DA:124,2
DA:125,2
DA:126,2
DA:127,2
DA:128,2
DA:129,2
DA:130,2
DA:132,2
DA:133,2
DA:134,2
DA:135,2
DA:136,2
DA:139,2
DA:140,2
DA:141,2
DA:142,2
DA:143,2
DA:146,2
DA:147,2
DA:148,2
DA:149,2
DA:150,2
DA:151,2
DA:153,2
DA:154,2
DA:156,2
DA:157,2
DA:158,2
DA:159,2
DA:162,2
DA:163,2
DA:164,2
DA:165,2
DA:166,2
DA:167,2
DA:169,2
DA:170,2
DA:172,2
DA:173,2
DA:174,2
DA:175,2
DA:178,2
DA:179,2
DA:180,2
DA:181,2
DA:182,2
DA:183,2
DA:184,2
DA:185,2
DA:187,2
DA:188,2
DA:190,2
DA:191,2
DA:192,2
DA:193,2
DA:194,2
DA:195,2
DA:198,2
DA:199,2
DA:200,2
DA:201,2
DA:202,2
DA:203,2
DA:204,2
DA:205,2
DA:207,2
DA:208,2
DA:210,2
DA:211,2
DA:212,2
DA:215,2
DA:216,2
DA:218,2
DA:219,2
DA:220,2
DA:221,2
DA:224,2
DA:225,2
DA:227,2
DA:228,2
DA:230,2
DA:231,2
DA:232,2
DA:233,2
DA:236,2
DA:237,2
DA:238,2
DA:239,2
DA:240,2
DA:241,2
DA:243,2
DA:244,2
DA:246,2
DA:247,2
DA:248,2
DA:249,2
DA:252,2
DA:253,2
DA:255,2
DA:256,2
DA:257,2
DA:258,2
DA:261,2
DA:262,2
DA:263,2
DA:265,2
DA:266,2
DA:267,2
DA:269,2
DA:270,2
DA:271,2
DA:273,2
DA:274,2
DA:275,2
DA:276,2
DA:279,2
DA:280,2
DA:282,2
DA:283,2
DA:285,2
DA:286,2
DA:287,2
DA:288,2
DA:289,2
DA:292,2
DA:293,2
DA:294,2
DA:295,2
DA:296,2
DA:297,2
DA:299,2
DA:300,2
DA:302,2
DA:303,2
DA:304,2
DA:305,2
BRF:0
BRH:0
LF:184
LH:181
end_of_record
SF:/home/acleveland/repo/telegram-notifications/src/config.rs
FN:35,_RNvMNtCsiY43c7xbNeL_22telegram_notifications6configNtB2_6Config17from_args_and_env
FN:41,_RNCNvMNtCsiY43c7xbNeL_22telegram_notifications6configNtB4_6Config17from_args_and_env0B6_
FN:74,_RNCNvMNtCsiY43c7xbNeL_22telegram_notifications6configNtB4_6Config17from_args_and_envs0_0B6_
FN:51,_RNCNvMNtCsiY43c7xbNeL_22telegram_notifications6configNtB4_6Config17from_args_and_envs_0B6_
FN:105,_RNvNtNtCskJgHELm9BI9_22telegram_notifications6config5tests14clear_env_vars
FN:291,_RNvNtNtCskJgHELm9BI9_22telegram_notifications6config5testss_20test_config_defaults
FN:272,_RNvNtNtCskJgHELm9BI9_22telegram_notifications6config5testss_27test_config_resolved_struct
FN:336,_RNvNtNtCskJgHELm9BI9_22telegram_notifications6config5testss_32test_config_debug_implementation
FN:356,_RNvNtNtCskJgHELm9BI9_22telegram_notifications6config5testss_41test_config_resolved_debug_implementation
FN:41,_RNCNvMNtCskJgHELm9BI9_22telegram_notifications6configNtB4_6Config17from_args_and_env0B6_
FN:74,_RNCNvMNtCskJgHELm9BI9_22telegram_notifications6configNtB4_6Config17from_args_and_envs0_0B6_
FN:51,_RNCNvMNtCskJgHELm9BI9_22telegram_notifications6configNtB4_6Config17from_args_and_envs_0B6_
FN:35,_RNvMNtCskJgHELm9BI9_22telegram_notifications6configNtB2_6Config17from_args_and_env
FN:264,_RNCNCNvNtNtCskJgHELm9BI9_22telegram_notifications6config5testss_25test_config_empty_chat_id00B9_
FN:136,_RNCNCNvNtNtCskJgHELm9BI9_22telegram_notifications6config5testss_25test_config_with_env_vars00B9_
FN:139,_RNCNCNvNtNtCskJgHELm9BI9_22telegram_notifications6config5testss_25test_config_with_env_vars0s_0B9_
FN:327,_RNCNCNvNtNtCskJgHELm9BI9_22telegram_notifications6config5testss_25test_port_parsing_invalid00B9_
FN:236,_RNCNCNvNtNtCskJgHELm9BI9_22telegram_notifications6config5testss_27test_config_empty_bot_token00B9_
FN:211,_RNCNCNvNtNtCskJgHELm9BI9_22telegram_notifications6config5testss_27test_config_missing_chat_id00B9_
FN:192,_RNCNCNvNtNtCskJgHELm9BI9_22telegram_notifications6config5testss_29test_config_missing_bot_token00B9_
FN:167,_RNCNCNvNtNtCskJgHELm9BI9_22telegram_notifications6config5testss_29test_config_with_port_env_var00B9_
FN:245,_RNCNvNtNtCskJgHELm9BI9_22telegram_notifications6config5testss_25test_config_empty_chat_id0B7_
FN:115,_RNCNvNtNtCskJgHELm9BI9_22telegram_notifications6config5testss_25test_config_with_env_vars0B7_
FN:309,_RNCNvNtNtCskJgHELm9BI9_22telegram_notifications6config5testss_25test_port_parsing_invalid0B7_
FN:217,_RNCNvNtNtCskJgHELm9BI9_22telegram_notifications6config5testss_27test_config_empty_bot_token0B7_
FN:198,_RNCNvNtNtCskJgHELm9BI9_22telegram_notifications6config5testss_27test_config_missing_chat_id0B7_
FN:177,_RNCNvNtNtCskJgHELm9BI9_22telegram_notifications6config5testss_29test_config_missing_bot_token0B7_
FN:149,_RNCNvNtNtCskJgHELm9BI9_22telegram_notifications6config5testss_29test_config_with_port_env_var0B7_
FN:105,_RNvNtNtCs68a4HstG1A7_22telegram_notifications6config5tests14clear_env_vars
FN:291,_RNvNtNtCs68a4HstG1A7_22telegram_notifications6config5testss_20test_config_defaults
FN:272,_RNvNtNtCs68a4HstG1A7_22telegram_notifications6config5testss_27test_config_resolved_struct
FN:336,_RNvNtNtCs68a4HstG1A7_22telegram_notifications6config5testss_32test_config_debug_implementation
FN:356,_RNvNtNtCs68a4HstG1A7_22telegram_notifications6config5testss_41test_config_resolved_debug_implementation
FN:41,_RNCNvMNtCs68a4HstG1A7_22telegram_notifications6configNtB4_6Config17from_args_and_env0B6_
FN:74,_RNCNvMNtCs68a4HstG1A7_22telegram_notifications6configNtB4_6Config17from_args_and_envs0_0B6_
FN:51,_RNCNvMNtCs68a4HstG1A7_22telegram_notifications6configNtB4_6Config17from_args_and_envs_0B6_
FN:35,_RNvMNtCs68a4HstG1A7_22telegram_notifications6configNtB2_6Config17from_args_and_env
FN:264,_RNCNCNvNtNtCs68a4HstG1A7_22telegram_notifications6config5testss_25test_config_empty_chat_id00B9_
FN:136,_RNCNCNvNtNtCs68a4HstG1A7_22telegram_notifications6config5testss_25test_config_with_env_vars00B9_
FN:139,_RNCNCNvNtNtCs68a4HstG1A7_22telegram_notifications6config5testss_25test_config_with_env_vars0s_0B9_
FN:327,_RNCNCNvNtNtCs68a4HstG1A7_22telegram_notifications6config5testss_25test_port_parsing_invalid00B9_
FN:236,_RNCNCNvNtNtCs68a4HstG1A7_22telegram_notifications6config5testss_27test_config_empty_bot_token00B9_
FN:211,_RNCNCNvNtNtCs68a4HstG1A7_22telegram_notifications6config5testss_27test_config_missing_chat_id00B9_
FN:192,_RNCNCNvNtNtCs68a4HstG1A7_22telegram_notifications6config5testss_29test_config_missing_bot_token00B9_
FN:167,_RNCNCNvNtNtCs68a4HstG1A7_22telegram_notifications6config5testss_29test_config_with_port_env_var00B9_
FN:245,_RNCNvNtNtCs68a4HstG1A7_22telegram_notifications6config5testss_25test_config_empty_chat_id0B7_
FN:115,_RNCNvNtNtCs68a4HstG1A7_22telegram_notifications6config5testss_25test_config_with_env_vars0B7_
FN:309,_RNCNvNtNtCs68a4HstG1A7_22telegram_notifications6config5testss_25test_port_parsing_invalid0B7_
FN:217,_RNCNvNtNtCs68a4HstG1A7_22telegram_notifications6config5testss_27test_config_empty_bot_token0B7_
FN:198,_RNCNvNtNtCs68a4HstG1A7_22telegram_notifications6config5testss_27test_config_missing_chat_id0B7_
FN:177,_RNCNvNtNtCs68a4HstG1A7_22telegram_notifications6config5testss_29test_config_missing_bot_token0B7_
FN:149,_RNCNvNtNtCs68a4HstG1A7_22telegram_notifications6config5testss_29test_config_with_port_env_var0B7_
FNDA:0,_RNvMNtCsiY43c7xbNeL_22telegram_notifications6configNtB2_6Config17from_args_and_env
FNDA:0,_RNCNvMNtCsiY43c7xbNeL_22telegram_notifications6configNtB4_6Config17from_args_and_env0B6_
FNDA:0,_RNCNvMNtCsiY43c7xbNeL_22telegram_notifications6configNtB4_6Config17from_args_and_envs0_0B6_
FNDA:0,_RNCNvMNtCsiY43c7xbNeL_22telegram_notifications6configNtB4_6Config17from_args_and_envs_0B6_
FNDA:12,_RNvNtNtCskJgHELm9BI9_22telegram_notifications6config5tests14clear_env_vars
FNDA:1,_RNvNtNtCskJgHELm9BI9_22telegram_notifications6config5testss_20test_config_defaults
FNDA:1,_RNvNtNtCskJgHELm9BI9_22telegram_notifications6config5testss_27test_config_resolved_struct
FNDA:1,_RNvNtNtCskJgHELm9BI9_22telegram_notifications6config5testss_32test_config_debug_implementation
FNDA:1,_RNvNtNtCskJgHELm9BI9_22telegram_notifications6config5testss_41test_config_resolved_debug_implementation
FNDA:0,_RNCNvMNtCskJgHELm9BI9_22telegram_notifications6configNtB4_6Config17from_args_and_env0B6_
FNDA:0,_RNCNvMNtCskJgHELm9BI9_22telegram_notifications6configNtB4_6Config17from_args_and_envs0_0B6_
FNDA:0,_RNCNvMNtCskJgHELm9BI9_22telegram_notifications6configNtB4_6Config17from_args_and_envs_0B6_
FNDA:0,_RNvMNtCskJgHELm9BI9_22telegram_notifications6configNtB2_6Config17from_args_and_env
FNDA:1,_RNCNCNvNtNtCskJgHELm9BI9_22telegram_notifications6config5testss_25test_config_empty_chat_id00B9_
FNDA:1,_RNCNCNvNtNtCskJgHELm9BI9_22telegram_notifications6config5testss_25test_config_with_env_vars00B9_
FNDA:1,_RNCNCNvNtNtCskJgHELm9BI9_22telegram_notifications6config5testss_25test_config_with_env_vars0s_0B9_
FNDA:1,_RNCNCNvNtNtCskJgHELm9BI9_22telegram_notifications6config5testss_25test_port_parsing_invalid00B9_
FNDA:1,_RNCNCNvNtNtCskJgHELm9BI9_22telegram_notifications6config5testss_27test_config_empty_bot_token00B9_
FNDA:1,_RNCNCNvNtNtCskJgHELm9BI9_22telegram_notifications6config5testss_27test_config_missing_chat_id00B9_
FNDA:1,_RNCNCNvNtNtCskJgHELm9BI9_22telegram_notifications6config5testss_29test_config_missing_bot_token00B9_
FNDA:1,_RNCNCNvNtNtCskJgHELm9BI9_22telegram_notifications6config5testss_29test_config_with_port_env_var00B9_
FNDA:1,_RNCNvNtNtCskJgHELm9BI9_22telegram_notifications6config5testss_25test_config_empty_chat_id0B7_
FNDA:1,_RNCNvNtNtCskJgHELm9BI9_22telegram_notifications6config5testss_25test_config_with_env_vars0B7_
FNDA:1,_RNCNvNtNtCskJgHELm9BI9_22telegram_notifications6config5testss_25test_port_parsing_invalid0B7_
FNDA:1,_RNCNvNtNtCskJgHELm9BI9_22telegram_notifications6config5testss_27test_config_empty_bot_token0B7_
FNDA:1,_RNCNvNtNtCskJgHELm9BI9_22telegram_notifications6config5testss_27test_config_missing_chat_id0B7_
FNDA:1,_RNCNvNtNtCskJgHELm9BI9_22telegram_notifications6config5testss_29test_config_missing_bot_token0B7_
FNDA:1,_RNCNvNtNtCskJgHELm9BI9_22telegram_notifications6config5testss_29test_config_with_port_env_var0B7_
FNDA:12,_RNvNtNtCs68a4HstG1A7_22telegram_notifications6config5tests14clear_env_vars
FNDA:1,_RNvNtNtCs68a4HstG1A7_22telegram_notifications6config5testss_20test_config_defaults
FNDA:1,_RNvNtNtCs68a4HstG1A7_22telegram_notifications6config5testss_27test_config_resolved_struct
FNDA:1,_RNvNtNtCs68a4HstG1A7_22telegram_notifications6config5testss_32test_config_debug_implementation
FNDA:1,_RNvNtNtCs68a4HstG1A7_22telegram_notifications6config5testss_41test_config_resolved_debug_implementation
FNDA:0,_RNCNvMNtCs68a4HstG1A7_22telegram_notifications6configNtB4_6Config17from_args_and_env0B6_
FNDA:0,_RNCNvMNtCs68a4HstG1A7_22telegram_notifications6configNtB4_6Config17from_args_and_envs0_0B6_
FNDA:0,_RNCNvMNtCs68a4HstG1A7_22telegram_notifications6configNtB4_6Config17from_args_and_envs_0B6_
FNDA:0,_RNvMNtCs68a4HstG1A7_22telegram_notifications6configNtB2_6Config17from_args_and_env
FNDA:1,_RNCNCNvNtNtCs68a4HstG1A7_22telegram_notifications6config5testss_25test_config_empty_chat_id00B9_
FNDA:1,_RNCNCNvNtNtCs68a4HstG1A7_22telegram_notifications6config5testss_25test_config_with_env_vars00B9_
FNDA:1,_RNCNCNvNtNtCs68a4HstG1A7_22telegram_notifications6config5testss_25test_config_with_env_vars0s_0B9_
FNDA:1,_RNCNCNvNtNtCs68a4HstG1A7_22telegram_notifications6config5testss_25test_port_parsing_invalid00B9_
FNDA:1,_RNCNCNvNtNtCs68a4HstG1A7_22telegram_notifications6config5testss_27test_config_empty_bot_token00B9_
FNDA:1,_RNCNCNvNtNtCs68a4HstG1A7_22telegram_notifications6config5testss_27test_config_missing_chat_id00B9_
FNDA:1,_RNCNCNvNtNtCs68a4HstG1A7_22telegram_notifications6config5testss_29test_config_missing_bot_token00B9_
FNDA:1,_RNCNCNvNtNtCs68a4HstG1A7_22telegram_notifications6config5testss_29test_config_with_port_env_var00B9_
FNDA:1,_RNCNvNtNtCs68a4HstG1A7_22telegram_notifications6config5testss_25test_config_empty_chat_id0B7_
FNDA:1,_RNCNvNtNtCs68a4HstG1A7_22telegram_notifications6config5testss_25test_config_with_env_vars0B7_
FNDA:1,_RNCNvNtNtCs68a4HstG1A7_22telegram_notifications6config5testss_25test_port_parsing_invalid0B7_
FNDA:1,_RNCNvNtNtCs68a4HstG1A7_22telegram_notifications6config5testss_27test_config_empty_bot_token0B7_
FNDA:1,_RNCNvNtNtCs68a4HstG1A7_22telegram_notifications6config5testss_27test_config_missing_chat_id0B7_
FNDA:1,_RNCNvNtNtCs68a4HstG1A7_22telegram_notifications6config5testss_29test_config_missing_bot_token0B7_
FNDA:1,_RNCNvNtNtCs68a4HstG1A7_22telegram_notifications6config5testss_29test_config_with_port_env_var0B7_
FNF:24
FNH:20
DA:35,0
DA:36,0
DA:39,0
DA:40,0
DA:41,0
DA:42,0
DA:43,0
DA:45,0
DA:49,0
DA:50,0
DA:51,0
DA:52,0
DA:53,0
DA:55,0
DA:59,0
DA:60,0
DA:61,0
DA:62,0
DA:63,0
DA:65,0
DA:66,0
DA:67,0
DA:68,0
DA:69,0
DA:72,0
DA:73,0
DA:74,0
DA:75,0
DA:77,0
DA:78,0
DA:79,0
DA:80,0
DA:81,0
DA:82,0
DA:83,0
DA:84,0
DA:85,0
DA:105,24
DA:106,24
DA:107,24
DA:108,24
DA:109,24
DA:110,24
DA:111,24
DA:115,2
DA:116,2
DA:118,2
DA:119,2
DA:120,2
DA:121,2
DA:124,2
DA:125,2
DA:126,2
DA:127,2
DA:128,2
DA:129,2
DA:130,2
DA:131,2
DA:134,2
DA:135,2
DA:136,2
DA:137,2
DA:138,2
DA:139,2
DA:141,2
DA:142,2
DA:144,2
DA:149,2
DA:150,2
DA:151,2
DA:152,2
DA:153,2
DA:155,2
DA:156,2
DA:157,2
DA:158,2
DA:159,2
DA:160,2
DA:161,2
DA:162,2
DA:165,2
DA:166,2
DA:167,2
DA:168,2
DA:170,2
DA:172,2
DA:177,2
DA:178,2
DA:180,2
DA:181,2
DA:182,2
DA:183,2
DA:184,2
DA:185,2
DA:186,2
DA:187,2
DA:190,2
DA:191,2
DA:192,2
DA:193,2
DA:198,2
DA:199,2
DA:201,2
DA:202,2
DA:203,2
DA:204,2
DA:205,2
DA:206,2
DA:207,2
DA:208,2
DA:211,2
DA:212,2
DA:217,2
DA:218,2
DA:219,2
DA:220,2
DA:221,2
DA:222,2
DA:224,2
DA:225,2
DA:226,2
DA:227,2
DA:228,2
DA:229,2
DA:230,2
DA:231,2
DA:234,2
DA:235,2
DA:236,2
DA:238,2
DA:240,2
DA:245,2
DA:246,2
DA:247,2
DA:248,2
DA:249,2
DA:250,2
DA:252,2
DA:253,2
DA:254,2
DA:255,2
DA:256,2
DA:257,2
DA:258,2
DA:259,2
DA:262,2
DA:263,2
DA:264,2
DA:266,2
DA:268,2
DA:272,2
DA:273,2
DA:274,2
DA:275,2
DA:276,2
DA:277,2
DA:278,2
DA:279,2
DA:280,2
DA:282,2
DA:283,2
DA:284,2
DA:285,2
DA:286,2
DA:287,2
DA:288,2
DA:291,2
DA:292,2
DA:293,2
DA:294,2
DA:295,2
DA:296,2
DA:297,2
DA:298,2
DA:299,2
DA:301,2
DA:302,2
DA:303,2
DA:304,2
DA:305,2
DA:309,2
DA:310,2
DA:311,2
DA:312,2
DA:313,2
DA:315,2
DA:316,2
DA:317,2
DA:318,2
DA:319,2
DA:320,2
DA:321,2
DA:322,2
DA:325,2
DA:326,2
DA:327,2
DA:328,2
DA:330,2
DA:332,2
DA:336,2
DA:337,2
DA:338,2
DA:339,2
DA:340,2
DA:341,2
DA:342,2
DA:343,2
DA:344,2
DA:346,2
DA:347,2
DA:348,2
DA:349,2
DA:350,2
DA:351,2
DA:352,2
DA:353,2
DA:356,2
DA:357,2
DA:358,2
DA:359,2
DA:360,2
DA:361,2
DA:362,2
DA:363,2
DA:364,2
DA:366,2
DA:367,2
DA:368,2
DA:369,2
DA:370,2
DA:371,2
DA:372,2
DA:373,2
BRF:0
BRH:0
LF:246
LH:204
end_of_record
SF:/home/acleveland/repo/telegram-notifications/src/handlers.rs
FN:156,_RNvNtCsiY43c7xbNeL_22telegram_notifications8handlers18extract_message_id
FN:161,_RNvNtCsiY43c7xbNeL_22telegram_notifications8handlers4info
FN:16,_RNvNtCsiY43c7xbNeL_22telegram_notifications8handlers4root
FN:149,_RNvNtCsiY43c7xbNeL_22telegram_notifications8handlers4send
FN:21,_RNvNtCsiY43c7xbNeL_22telegram_notifications8handlers6health
FN:75,_RNvNtCsiY43c7xbNeL_22telegram_notifications8handlers6notify
FN:47,_RNCNCNvNtCsiY43c7xbNeL_22telegram_notifications8handlers6health00B7_
FN:49,_RNCNCNvNtCsiY43c7xbNeL_22telegram_notifications8handlers6health0s0_0B7_
FN:48,_RNCNCNvNtCsiY43c7xbNeL_22telegram_notifications8handlers6health0s_0B7_
FN:16,_RNCNvNtCsiY43c7xbNeL_22telegram_notifications8handlers4root0B5_
FN:152,_RNCNvNtCsiY43c7xbNeL_22telegram_notifications8handlers4send0B5_
FN:23,_RNCNvNtCsiY43c7xbNeL_22telegram_notifications8handlers6health0B5_
FN:78,_RNCNvNtCsiY43c7xbNeL_22telegram_notifications8handlers6notify0B5_
FN:47,_RNCNCNvNtCskJgHELm9BI9_22telegram_notifications8handlers6health00B7_
FN:49,_RNCNCNvNtCskJgHELm9BI9_22telegram_notifications8handlers6health0s0_0B7_
FN:48,_RNCNCNvNtCskJgHELm9BI9_22telegram_notifications8handlers6health0s_0B7_
FN:16,_RNCNvNtCskJgHELm9BI9_22telegram_notifications8handlers4root0B5_
FN:152,_RNCNvNtCskJgHELm9BI9_22telegram_notifications8handlers4send0B5_
FN:23,_RNCNvNtCskJgHELm9BI9_22telegram_notifications8handlers6health0B5_
FN:78,_RNCNvNtCskJgHELm9BI9_22telegram_notifications8handlers6notify0B5_
FN:156,_RNvNtCskJgHELm9BI9_22telegram_notifications8handlers18extract_message_id
FN:161,_RNvNtCskJgHELm9BI9_22telegram_notifications8handlers4info
FN:16,_RNvNtCskJgHELm9BI9_22telegram_notifications8handlers4root
FN:149,_RNvNtCskJgHELm9BI9_22telegram_notifications8handlers4send
FN:21,_RNvNtCskJgHELm9BI9_22telegram_notifications8handlers6health
FN:75,_RNvNtCskJgHELm9BI9_22telegram_notifications8handlers6notify
FN:47,_RNCNCNvNtCs68a4HstG1A7_22telegram_notifications8handlers6health00B7_
FN:49,_RNCNCNvNtCs68a4HstG1A7_22telegram_notifications8handlers6health0s0_0B7_
FN:48,_RNCNCNvNtCs68a4HstG1A7_22telegram_notifications8handlers6health0s_0B7_
FN:16,_RNCNvNtCs68a4HstG1A7_22telegram_notifications8handlers4root0B5_
FN:152,_RNCNvNtCs68a4HstG1A7_22telegram_notifications8handlers4send0B5_
FN:23,_RNCNvNtCs68a4HstG1A7_22telegram_notifications8handlers6health0B5_
FN:78,_RNCNvNtCs68a4HstG1A7_22telegram_notifications8handlers6notify0B5_
FN:156,_RNvNtCs68a4HstG1A7_22telegram_notifications8handlers18extract_message_id
FN:161,_RNvNtCs68a4HstG1A7_22telegram_notifications8handlers4info
FN:16,_RNvNtCs68a4HstG1A7_22telegram_notifications8handlers4root
FN:149,_RNvNtCs68a4HstG1A7_22telegram_notifications8handlers4send
FN:21,_RNvNtCs68a4HstG1A7_22telegram_notifications8handlers6health
FN:75,_RNvNtCs68a4HstG1A7_22telegram_notifications8handlers6notify
FNDA:0,_RNvNtCsiY43c7xbNeL_22telegram_notifications8handlers18extract_message_id
FNDA:0,_RNvNtCsiY43c7xbNeL_22telegram_notifications8handlers4info
FNDA:0,_RNvNtCsiY43c7xbNeL_22telegram_notifications8handlers4root
FNDA:0,_RNvNtCsiY43c7xbNeL_22telegram_notifications8handlers4send
FNDA:0,_RNvNtCsiY43c7xbNeL_22telegram_notifications8handlers6health
FNDA:0,_RNvNtCsiY43c7xbNeL_22telegram_notifications8handlers6notify
FNDA:0,_RNCNCNvNtCsiY43c7xbNeL_22telegram_notifications8handlers6health00B7_
FNDA:0,_RNCNCNvNtCsiY43c7xbNeL_22telegram_notifications8handlers6health0s0_0B7_
FNDA:0,_RNCNCNvNtCsiY43c7xbNeL_22telegram_notifications8handlers6health0s_0B7_
FNDA:0,_RNCNvNtCsiY43c7xbNeL_22telegram_notifications8handlers4root0B5_
FNDA:0,_RNCNvNtCsiY43c7xbNeL_22telegram_notifications8handlers4send0B5_
FNDA:0,_RNCNvNtCsiY43c7xbNeL_22telegram_notifications8handlers6health0B5_
FNDA:0,_RNCNvNtCsiY43c7xbNeL_22telegram_notifications8handlers6notify0B5_
FNDA:0,_RNCNCNvNtCskJgHELm9BI9_22telegram_notifications8handlers6health00B7_
FNDA:0,_RNCNCNvNtCskJgHELm9BI9_22telegram_notifications8handlers6health0s0_0B7_
FNDA:0,_RNCNCNvNtCskJgHELm9BI9_22telegram_notifications8handlers6health0s_0B7_
FNDA:0,_RNCNvNtCskJgHELm9BI9_22telegram_notifications8handlers4root0B5_
FNDA:0,_RNCNvNtCskJgHELm9BI9_22telegram_notifications8handlers4send0B5_
FNDA:0,_RNCNvNtCskJgHELm9BI9_22telegram_notifications8handlers6health0B5_
FNDA:0,_RNCNvNtCskJgHELm9BI9_22telegram_notifications8handlers6notify0B5_
FNDA:0,_RNvNtCskJgHELm9BI9_22telegram_notifications8handlers18extract_message_id
FNDA:0,_RNvNtCskJgHELm9BI9_22telegram_notifications8handlers4info
FNDA:0,_RNvNtCskJgHELm9BI9_22telegram_notifications8handlers4root
FNDA:0,_RNvNtCskJgHELm9BI9_22telegram_notifications8handlers4send
FNDA:0,_RNvNtCskJgHELm9BI9_22telegram_notifications8handlers6health
FNDA:0,_RNvNtCskJgHELm9BI9_22telegram_notifications8handlers6notify
FNDA:0,_RNCNCNvNtCs68a4HstG1A7_22telegram_notifications8handlers6health00B7_
FNDA:0,_RNCNCNvNtCs68a4HstG1A7_22telegram_notifications8handlers6health0s0_0B7_
FNDA:0,_RNCNCNvNtCs68a4HstG1A7_22telegram_notifications8handlers6health0s_0B7_
FNDA:0,_RNCNvNtCs68a4HstG1A7_22telegram_notifications8handlers4root0B5_
FNDA:0,_RNCNvNtCs68a4HstG1A7_22telegram_notifications8handlers4send0B5_
FNDA:0,_RNCNvNtCs68a4HstG1A7_22telegram_notifications8handlers6health0B5_
FNDA:0,_RNCNvNtCs68a4HstG1A7_22telegram_notifications8handlers6notify0B5_
FNDA:0,_RNvNtCs68a4HstG1A7_22telegram_notifications8handlers18extract_message_id
FNDA:0,_RNvNtCs68a4HstG1A7_22telegram_notifications8handlers4info
FNDA:0,_RNvNtCs68a4HstG1A7_22telegram_notifications8handlers4root
FNDA:0,_RNvNtCs68a4HstG1A7_22telegram_notifications8handlers4send
FNDA:0,_RNvNtCs68a4HstG1A7_22telegram_notifications8handlers6health
FNDA:0,_RNvNtCs68a4HstG1A7_22telegram_notifications8handlers6notify
FNF:13
FNH:0
DA:16,0
DA:17,0
DA:18,0
DA:21,0
DA:22,0
DA:23,0
DA:24,0
DA:27,0
DA:28,0
DA:29,0
DA:30,0
DA:32,0
DA:33,0
DA:34,0
DA:35,0
DA:36,0
DA:37,0
DA:38,0
DA:39,0
DA:40,0
DA:42,0
DA:43,0
DA:44,0
DA:45,0
DA:46,0
DA:47,0
DA:48,0
DA:49,0
DA:51,0
DA:52,0
DA:53,0
DA:54,0
DA:55,0
DA:56,0
DA:57,0
DA:58,0
DA:60,0
DA:61,0
DA:62,0
DA:63,0
DA:64,0
DA:65,0
DA:66,0
DA:67,0
DA:68,0
DA:72,0
DA:75,0
DA:76,0
DA:77,0
DA:78,0
DA:79,0
DA:80,0
DA:81,0
DA:85,0
DA:86,0
DA:87,0
DA:88,0
DA:89,0
DA:90,0
DA:91,0
DA:92,0
DA:93,0
DA:94,0
DA:97,0
DA:100,0
DA:101,0
DA:102,0
DA:103,0
DA:105,0
DA:106,0
DA:107,0
DA:108,0
DA:109,0
DA:110,0
DA:111,0
DA:114,0
DA:115,0
DA:116,0
DA:117,0
DA:118,0
DA:119,0
DA:120,0
DA:122,0
DA:124,0
DA:125,0
DA:126,0
DA:128,0
DA:129,0
DA:130,0
DA:131,0
DA:132,0
DA:134,0
DA:135,0
DA:136,0
DA:137,0
DA:138,0
DA:139,0
DA:140,0
DA:141,0
DA:142,0
DA:146,0
DA:149,0
DA:150,0
DA:151,0
DA:152,0
DA:153,0
DA:154,0
DA:156,0
DA:157,0
DA:158,0
DA:161,0
DA:162,0
DA:163,0
BRF:0
BRH:0
LF:120
LH:0
end_of_record
SF:/home/acleveland/repo/telegram-notifications/src/main.rs
FN:31,_RNCNCNvCsiY43c7xbNeL_22telegram_notifications4main00B5_
FN:81,_RNCNvCsiY43c7xbNeL_22telegram_notifications10run_server0B3_
FN:115,_RNCNvCsiY43c7xbNeL_22telegram_notifications12run_cli_mode0B3_
FN:23,_RNCNvCsiY43c7xbNeL_22telegram_notifications4main0B3_
FN:81,_RNvCsiY43c7xbNeL_22telegram_notifications10run_server
FN:115,_RNvCsiY43c7xbNeL_22telegram_notifications12run_cli_mode
FN:23,_RNvCsiY43c7xbNeL_22telegram_notifications4main
FN:31,_RNCNCNvCs68a4HstG1A7_22telegram_notifications4main00B5_
FN:81,_RNCNvCs68a4HstG1A7_22telegram_notifications10run_server0B3_
FN:115,_RNCNvCs68a4HstG1A7_22telegram_notifications12run_cli_mode0B3_
FN:23,_RNCNvCs68a4HstG1A7_22telegram_notifications4main0B3_
FN:81,_RNvCs68a4HstG1A7_22telegram_notifications10run_server
FN:115,_RNvCs68a4HstG1A7_22telegram_notifications12run_cli_mode
FN:23,_RNvCs68a4HstG1A7_22telegram_notifications4main
FNDA:0,_RNCNCNvCsiY43c7xbNeL_22telegram_notifications4main00B5_
FNDA:0,_RNCNvCsiY43c7xbNeL_22telegram_notifications10run_server0B3_
FNDA:0,_RNCNvCsiY43c7xbNeL_22telegram_notifications12run_cli_mode0B3_
FNDA:0,_RNCNvCsiY43c7xbNeL_22telegram_notifications4main0B3_
FNDA:0,_RNvCsiY43c7xbNeL_22telegram_notifications10run_server
FNDA:0,_RNvCsiY43c7xbNeL_22telegram_notifications12run_cli_mode
FNDA:0,_RNvCsiY43c7xbNeL_22telegram_notifications4main
FNDA:0,_RNCNCNvCs68a4HstG1A7_22telegram_notifications4main00B5_
FNDA:0,_RNCNvCs68a4HstG1A7_22telegram_notifications10run_server0B3_
FNDA:0,_RNCNvCs68a4HstG1A7_22telegram_notifications12run_cli_mode0B3_
FNDA:0,_RNCNvCs68a4HstG1A7_22telegram_notifications4main0B3_
FNDA:0,_RNvCs68a4HstG1A7_22telegram_notifications10run_server
FNDA:0,_RNvCs68a4HstG1A7_22telegram_notifications12run_cli_mode
FNDA:0,_RNvCs68a4HstG1A7_22telegram_notifications4main
FNF:7
FNH:0
DA:23,0
DA:25,0
DA:28,0
DA:29,0
DA:30,0
DA:31,0
DA:33,0
DA:34,0
DA:37,0
DA:40,0
DA:43,0
DA:44,0
DA:45,0
DA:46,0
DA:48,0
DA:49,0
DA:50,0
DA:51,0
DA:52,0
DA:53,0
DA:54,0
DA:55,0
DA:56,0
DA:57,0
DA:58,0
DA:59,0
DA:60,0
DA:61,0
DA:62,0
DA:63,0
DA:64,0
DA:65,0
DA:66,0
DA:67,0
DA:68,0
DA:69,0
DA:70,0
DA:71,0
DA:72,0
DA:73,0
DA:74,0
DA:75,0
DA:76,0
DA:77,0
DA:78,0
DA:79,0
DA:81,0
DA:82,0
DA:83,0
DA:84,0
DA:85,0
DA:87,0
DA:88,0
DA:89,0
DA:90,0
DA:91,0
DA:92,0
DA:93,0
DA:94,0
DA:95,0
DA:97,0
DA:99,0
DA:100,0
DA:102,0
DA:103,0
DA:104,0
DA:105,0
DA:106,0
DA:107,0
DA:108,0
DA:109,0
DA:111,0
DA:112,0
DA:113,0
DA:115,0
DA:117,0
DA:118,0
DA:120,0
DA:122,0
DA:123,0
DA:125,0
DA:126,0
DA:127,0
DA:128,0
DA:129,0
DA:130,0
DA:131,0
DA:135,0
DA:136,0
BRF:0
BRH:0
LF:111
LH:0
end_of_record
SF:/home/acleveland/repo/telegram-notifications/src/telegram.rs
FN:58,_RNCNCNvMNtCsiY43c7xbNeL_22telegram_notifications8telegramNtB6_11TelegramBot21send_message_advanced00B8_
FN:86,_RNCNCNvMNtCsiY43c7xbNeL_22telegram_notifications8telegramNtB6_11TelegramBot21send_message_advanced0s_0B8_
FN:114,_RNCNCNvMNtCsiY43c7xbNeL_22telegram_notifications8telegramNtB6_11TelegramBot6get_me00B8_
FN:43,_RNCNvMNtCsiY43c7xbNeL_22telegram_notifications8telegramNtB4_11TelegramBot12send_message0B6_
FN:54,_RNCNvMNtCsiY43c7xbNeL_22telegram_notifications8telegramNtB4_11TelegramBot21send_message_advanced0B6_
FN:94,_RNCNvMNtCsiY43c7xbNeL_22telegram_notifications8telegramNtB4_11TelegramBot6get_me0B6_
FN:43,_RNvMNtCsiY43c7xbNeL_22telegram_notifications8telegramNtB2_11TelegramBot12send_message
FN:48,_RNvMNtCsiY43c7xbNeL_22telegram_notifications8telegramNtB2_11TelegramBot21send_message_advanced
FN:35,_RNvMNtCsiY43c7xbNeL_22telegram_notifications8telegramNtB2_11TelegramBot3new
FN:94,_RNvMNtCsiY43c7xbNeL_22telegram_notifications8telegramNtB2_11TelegramBot6get_me
FN:130,_RNvNtNtCskJgHELm9BI9_22telegram_notifications8telegram5tests15create_test_bot
FN:381,_RNvNtNtCskJgHELm9BI9_22telegram_notifications8telegram5testss_17test_get_me_error
FN:338,_RNvNtNtCskJgHELm9BI9_22telegram_notifications8telegram5testss_19test_get_me_success
FN:139,_RNvNtNtCskJgHELm9BI9_22telegram_notifications8telegram5testss_21test_telegram_bot_new
FN:148,_RNvNtNtCskJgHELm9BI9_22telegram_notifications8telegram5testss_25test_send_message_success
FN:317,_RNvNtNtCskJgHELm9BI9_22telegram_notifications8telegram5testss_31test_send_message_network_error
FN:538,_RNvNtNtCskJgHELm9BI9_22telegram_notifications8telegram5testss_31test_telegram_api_base_constant
FN:189,_RNvNtNtCskJgHELm9BI9_22telegram_notifications8telegram5testss_34test_send_message_advanced_success
FN:284,_RNvNtNtCskJgHELm9BI9_22telegram_notifications8telegram5testss_36test_send_message_telegram_api_error
FN:415,_RNvNtNtCskJgHELm9BI9_22telegram_notifications8telegram5testss_39test_send_message_request_serialization
FN:239,_RNvNtNtCskJgHELm9BI9_22telegram_notifications8telegram5testss_40test_send_message_advanced_no_parse_mode
FN:474,_RNvNtNtCskJgHELm9BI9_22telegram_notifications8telegram5testss_44test_telegram_response_deserialization_error
FN:493,_RNvNtNtCskJgHELm9BI9_22telegram_notifications8telegram5testss_45test_send_message_calls_send_message_advanced
FN:451,_RNvNtNtCskJgHELm9BI9_22telegram_notifications8telegram5testss_46test_telegram_response_deserialization_success
FN:433,_RNvNtNtCskJgHELm9BI9_22telegram_notifications8telegram5testss_47test_send_message_request_serialization_minimal
FN:43,_RNvMNtCskJgHELm9BI9_22telegram_notifications8telegramNtB2_11TelegramBot12send_message
FN:48,_RNvMNtCskJgHELm9BI9_22telegram_notifications8telegramNtB2_11TelegramBot21send_message_advanced
FN:35,_RNvMNtCskJgHELm9BI9_22telegram_notifications8telegramNtB2_11TelegramBot3new
FN:94,_RNvMNtCskJgHELm9BI9_22telegram_notifications8telegramNtB2_11TelegramBot6get_me
FN:58,_RNCNCNvMNtCskJgHELm9BI9_22telegram_notifications8telegramNtB6_11TelegramBot21send_message_advanced00B8_
FN:86,_RNCNCNvMNtCskJgHELm9BI9_22telegram_notifications8telegramNtB6_11TelegramBot21send_message_advanced0s_0B8_
FN:114,_RNCNCNvMNtCskJgHELm9BI9_22telegram_notifications8telegramNtB6_11TelegramBot6get_me00B8_
FN:43,_RNCNvMNtCskJgHELm9BI9_22telegram_notifications8telegramNtB4_11TelegramBot12send_message0B6_
FN:54,_RNCNvMNtCskJgHELm9BI9_22telegram_notifications8telegramNtB4_11TelegramBot21send_message_advanced0B6_
FN:94,_RNCNvMNtCskJgHELm9BI9_22telegram_notifications8telegramNtB4_11TelegramBot6get_me0B6_
FN:130,_RNCNvNtNtCskJgHELm9BI9_22telegram_notifications8telegram5tests15create_test_bot0B7_
FN:381,_RNCNvNtNtCskJgHELm9BI9_22telegram_notifications8telegram5testss_17test_get_me_error0B7_
FN:338,_RNCNvNtNtCskJgHELm9BI9_22telegram_notifications8telegram5testss_19test_get_me_success0B7_
FN:139,_RNCNvNtNtCskJgHELm9BI9_22telegram_notifications8telegram5testss_21test_telegram_bot_new0B7_
FN:148,_RNCNvNtNtCskJgHELm9BI9_22telegram_notifications8telegram5testss_25test_send_message_success0B7_
FN:317,_RNCNvNtNtCskJgHELm9BI9_22telegram_notifications8telegram5testss_31test_send_message_network_error0B7_
FN:189,_RNCNvNtNtCskJgHELm9BI9_22telegram_notifications8telegram5testss_34test_send_message_advanced_success0B7_
FN:284,_RNCNvNtNtCskJgHELm9BI9_22telegram_notifications8telegram5testss_36test_send_message_telegram_api_error0B7_
FN:415,_RNCNvNtNtCskJgHELm9BI9_22telegram_notifications8telegram5testss_39test_send_message_request_serialization0B7_
FN:239,_RNCNvNtNtCskJgHELm9BI9_22telegram_notifications8telegram5testss_40test_send_message_advanced_no_parse_mode0B7_
FN:474,_RNCNvNtNtCskJgHELm9BI9_22telegram_notifications8telegram5testss_44test_telegram_response_deserialization_error0B7_
FN:493,_RNCNvNtNtCskJgHELm9BI9_22telegram_notifications8telegram5testss_45test_send_message_calls_send_message_advanced0B7_
FN:451,_RNCNvNtNtCskJgHELm9BI9_22telegram_notifications8telegram5testss_46test_telegram_response_deserialization_success0B7_
FN:433,_RNCNvNtNtCskJgHELm9BI9_22telegram_notifications8telegram5testss_47test_send_message_request_serialization_minimal0B7_
FN:130,_RNCNvNtNtCs68a4HstG1A7_22telegram_notifications8telegram5tests15create_test_bot0B7_
FN:381,_RNCNvNtNtCs68a4HstG1A7_22telegram_notifications8telegram5testss_17test_get_me_error0B7_
FN:338,_RNCNvNtNtCs68a4HstG1A7_22telegram_notifications8telegram5testss_19test_get_me_success0B7_
FN:139,_RNCNvNtNtCs68a4HstG1A7_22telegram_notifications8telegram5testss_21test_telegram_bot_new0B7_
FN:148,_RNCNvNtNtCs68a4HstG1A7_22telegram_notifications8telegram5testss_25test_send_message_success0B7_
FN:317,_RNCNvNtNtCs68a4HstG1A7_22telegram_notifications8telegram5testss_31test_send_message_network_error0B7_
FN:189,_RNCNvNtNtCs68a4HstG1A7_22telegram_notifications8telegram5testss_34test_send_message_advanced_success0B7_
FN:284,_RNCNvNtNtCs68a4HstG1A7_22telegram_notifications8telegram5testss_36test_send_message_telegram_api_error0B7_
FN:415,_RNCNvNtNtCs68a4HstG1A7_22telegram_notifications8telegram5testss_39test_send_message_request_serialization0B7_
FN:239,_RNCNvNtNtCs68a4HstG1A7_22telegram_notifications8telegram5testss_40test_send_message_advanced_no_parse_mode0B7_
FN:474,_RNCNvNtNtCs68a4HstG1A7_22telegram_notifications8telegram5testss_44test_telegram_response_deserialization_error0B7_
FN:493,_RNCNvNtNtCs68a4HstG1A7_22telegram_notifications8telegram5testss_45test_send_message_calls_send_message_advanced0B7_
FN:451,_RNCNvNtNtCs68a4HstG1A7_22telegram_notifications8telegram5testss_46test_telegram_response_deserialization_success0B7_
FN:433,_RNCNvNtNtCs68a4HstG1A7_22telegram_notifications8telegram5testss_47test_send_message_request_serialization_minimal0B7_
FN:43,_RNvMNtCs68a4HstG1A7_22telegram_notifications8telegramNtB2_11TelegramBot12send_message
FN:48,_RNvMNtCs68a4HstG1A7_22telegram_notifications8telegramNtB2_11TelegramBot21send_message_advanced
FN:35,_RNvMNtCs68a4HstG1A7_22telegram_notifications8telegramNtB2_11TelegramBot3new
FN:94,_RNvMNtCs68a4HstG1A7_22telegram_notifications8telegramNtB2_11TelegramBot6get_me
FN:58,_RNCNCNvMNtCs68a4HstG1A7_22telegram_notifications8telegramNtB6_11TelegramBot21send_message_advanced00B8_
FN:86,_RNCNCNvMNtCs68a4HstG1A7_22telegram_notifications8telegramNtB6_11TelegramBot21send_message_advanced0s_0B8_
FN:114,_RNCNCNvMNtCs68a4HstG1A7_22telegram_notifications8telegramNtB6_11TelegramBot6get_me00B8_
FN:43,_RNCNvMNtCs68a4HstG1A7_22telegram_notifications8telegramNtB4_11TelegramBot12send_message0B6_
FN:54,_RNCNvMNtCs68a4HstG1A7_22telegram_notifications8telegramNtB4_11TelegramBot21send_message_advanced0B6_
FN:94,_RNCNvMNtCs68a4HstG1A7_22telegram_notifications8telegramNtB4_11TelegramBot6get_me0B6_
FN:130,_RNvNtNtCs68a4HstG1A7_22telegram_notifications8telegram5tests15create_test_bot
FN:381,_RNvNtNtCs68a4HstG1A7_22telegram_notifications8telegram5testss_17test_get_me_error
FN:338,_RNvNtNtCs68a4HstG1A7_22telegram_notifications8telegram5testss_19test_get_me_success
FN:139,_RNvNtNtCs68a4HstG1A7_22telegram_notifications8telegram5testss_21test_telegram_bot_new
FN:148,_RNvNtNtCs68a4HstG1A7_22telegram_notifications8telegram5testss_25test_send_message_success
FN:317,_RNvNtNtCs68a4HstG1A7_22telegram_notifications8telegram5testss_31test_send_message_network_error
FN:538,_RNvNtNtCs68a4HstG1A7_22telegram_notifications8telegram5testss_31test_telegram_api_base_constant
FN:189,_RNvNtNtCs68a4HstG1A7_22telegram_notifications8telegram5testss_34test_send_message_advanced_success
FN:284,_RNvNtNtCs68a4HstG1A7_22telegram_notifications8telegram5testss_36test_send_message_telegram_api_error
FN:415,_RNvNtNtCs68a4HstG1A7_22telegram_notifications8telegram5testss_39test_send_message_request_serialization
FN:239,_RNvNtNtCs68a4HstG1A7_22telegram_notifications8telegram5testss_40test_send_message_advanced_no_parse_mode
FN:474,_RNvNtNtCs68a4HstG1A7_22telegram_notifications8telegram5testss_44test_telegram_response_deserialization_error
FN:493,_RNvNtNtCs68a4HstG1A7_22telegram_notifications8telegram5testss_45test_send_message_calls_send_message_advanced
FN:451,_RNvNtNtCs68a4HstG1A7_22telegram_notifications8telegram5testss_46test_telegram_response_deserialization_success
FN:433,_RNvNtNtCs68a4HstG1A7_22telegram_notifications8telegram5testss_47test_send_message_request_serialization_minimal
FNDA:0,_RNCNCNvMNtCsiY43c7xbNeL_22telegram_notifications8telegramNtB6_11TelegramBot21send_message_advanced00B8_
FNDA:0,_RNCNCNvMNtCsiY43c7xbNeL_22telegram_notifications8telegramNtB6_11TelegramBot21send_message_advanced0s_0B8_
FNDA:0,_RNCNCNvMNtCsiY43c7xbNeL_22telegram_notifications8telegramNtB6_11TelegramBot6get_me00B8_
FNDA:0,_RNCNvMNtCsiY43c7xbNeL_22telegram_notifications8telegramNtB4_11TelegramBot12send_message0B6_
FNDA:0,_RNCNvMNtCsiY43c7xbNeL_22telegram_notifications8telegramNtB4_11TelegramBot21send_message_advanced0B6_
FNDA:0,_RNCNvMNtCsiY43c7xbNeL_22telegram_notifications8telegramNtB4_11TelegramBot6get_me0B6_
FNDA:0,_RNvMNtCsiY43c7xbNeL_22telegram_notifications8telegramNtB2_11TelegramBot12send_message
FNDA:0,_RNvMNtCsiY43c7xbNeL_22telegram_notifications8telegramNtB2_11TelegramBot21send_message_advanced
FNDA:0,_RNvMNtCsiY43c7xbNeL_22telegram_notifications8telegramNtB2_11TelegramBot3new
FNDA:0,_RNvMNtCsiY43c7xbNeL_22telegram_notifications8telegramNtB2_11TelegramBot6get_me
FNDA:8,_RNvNtNtCskJgHELm9BI9_22telegram_notifications8telegram5tests15create_test_bot
FNDA:1,_RNvNtNtCskJgHELm9BI9_22telegram_notifications8telegram5testss_17test_get_me_error
FNDA:1,_RNvNtNtCskJgHELm9BI9_22telegram_notifications8telegram5testss_19test_get_me_success
FNDA:1,_RNvNtNtCskJgHELm9BI9_22telegram_notifications8telegram5testss_21test_telegram_bot_new
FNDA:1,_RNvNtNtCskJgHELm9BI9_22telegram_notifications8telegram5testss_25test_send_message_success
FNDA:1,_RNvNtNtCskJgHELm9BI9_22telegram_notifications8telegram5testss_31test_send_message_network_error
FNDA:1,_RNvNtNtCskJgHELm9BI9_22telegram_notifications8telegram5testss_31test_telegram_api_base_constant
FNDA:1,_RNvNtNtCskJgHELm9BI9_22telegram_notifications8telegram5testss_34test_send_message_advanced_success
FNDA:1,_RNvNtNtCskJgHELm9BI9_22telegram_notifications8telegram5testss_36test_send_message_telegram_api_error
FNDA:1,_RNvNtNtCskJgHELm9BI9_22telegram_notifications8telegram5testss_39test_send_message_request_serialization
FNDA:1,_RNvNtNtCskJgHELm9BI9_22telegram_notifications8telegram5testss_40test_send_message_advanced_no_parse_mode
FNDA:1,_RNvNtNtCskJgHELm9BI9_22telegram_notifications8telegram5testss_44test_telegram_response_deserialization_error
FNDA:1,_RNvNtNtCskJgHELm9BI9_22telegram_notifications8telegram5testss_45test_send_message_calls_send_message_advanced
FNDA:1,_RNvNtNtCskJgHELm9BI9_22telegram_notifications8telegram5testss_46test_telegram_response_deserialization_success
FNDA:1,_RNvNtNtCskJgHELm9BI9_22telegram_notifications8telegram5testss_47test_send_message_request_serialization_minimal
FNDA:4,_RNvMNtCskJgHELm9BI9_22telegram_notifications8telegramNtB2_11TelegramBot12send_message
FNDA:6,_RNvMNtCskJgHELm9BI9_22telegram_notifications8telegramNtB2_11TelegramBot21send_message_advanced
FNDA:9,_RNvMNtCskJgHELm9BI9_22telegram_notifications8telegramNtB2_11TelegramBot3new
FNDA:2,_RNvMNtCskJgHELm9BI9_22telegram_notifications8telegramNtB2_11TelegramBot6get_me
FNDA:5,_RNCNCNvMNtCskJgHELm9BI9_22telegram_notifications8telegramNtB6_11TelegramBot21send_message_advanced00B8_
FNDA:0,_RNCNCNvMNtCskJgHELm9BI9_22telegram_notifications8telegramNtB6_11TelegramBot21send_message_advanced0s_0B8_
FNDA:0,_RNCNCNvMNtCskJgHELm9BI9_22telegram_notifications8telegramNtB6_11TelegramBot6get_me00B8_
FNDA:4,_RNCNvMNtCskJgHELm9BI9_22telegram_notifications8telegramNtB4_11TelegramBot12send_message0B6_
FNDA:6,_RNCNvMNtCskJgHELm9BI9_22telegram_notifications8telegramNtB4_11TelegramBot21send_message_advanced0B6_
FNDA:2,_RNCNvMNtCskJgHELm9BI9_22telegram_notifications8telegramNtB4_11TelegramBot6get_me0B6_
FNDA:8,_RNCNvNtNtCskJgHELm9BI9_22telegram_notifications8telegram5tests15create_test_bot0B7_
FNDA:1,_RNCNvNtNtCskJgHELm9BI9_22telegram_notifications8telegram5testss_17test_get_me_error0B7_
FNDA:1,_RNCNvNtNtCskJgHELm9BI9_22telegram_notifications8telegram5testss_19test_get_me_success0B7_
FNDA:1,_RNCNvNtNtCskJgHELm9BI9_22telegram_notifications8telegram5testss_21test_telegram_bot_new0B7_
FNDA:1,_RNCNvNtNtCskJgHELm9BI9_22telegram_notifications8telegram5testss_25test_send_message_success0B7_
FNDA:1,_RNCNvNtNtCskJgHELm9BI9_22telegram_notifications8telegram5testss_31test_send_message_network_error0B7_
FNDA:1,_RNCNvNtNtCskJgHELm9BI9_22telegram_notifications8telegram5testss_34test_send_message_advanced_success0B7_
FNDA:1,_RNCNvNtNtCskJgHELm9BI9_22telegram_notifications8telegram5testss_36test_send_message_telegram_api_error0B7_
FNDA:1,_RNCNvNtNtCskJgHELm9BI9_22telegram_notifications8telegram5testss_39test_send_message_request_serialization0B7_
FNDA:1,_RNCNvNtNtCskJgHELm9BI9_22telegram_notifications8telegram5testss_40test_send_message_advanced_no_parse_mode0B7_
FNDA:1,_RNCNvNtNtCskJgHELm9BI9_22telegram_notifications8telegram5testss_44test_telegram_response_deserialization_error0B7_
FNDA:1,_RNCNvNtNtCskJgHELm9BI9_22telegram_notifications8telegram5testss_45test_send_message_calls_send_message_advanced0B7_
FNDA:1,_RNCNvNtNtCskJgHELm9BI9_22telegram_notifications8telegram5testss_46test_telegram_response_deserialization_success0B7_
FNDA:1,_RNCNvNtNtCskJgHELm9BI9_22telegram_notifications8telegram5testss_47test_send_message_request_serialization_minimal0B7_
FNDA:8,_RNCNvNtNtCs68a4HstG1A7_22telegram_notifications8telegram5tests15create_test_bot0B7_
FNDA:1,_RNCNvNtNtCs68a4HstG1A7_22telegram_notifications8telegram5testss_17test_get_me_error0B7_
FNDA:1,_RNCNvNtNtCs68a4HstG1A7_22telegram_notifications8telegram5testss_19test_get_me_success0B7_
FNDA:1,_RNCNvNtNtCs68a4HstG1A7_22telegram_notifications8telegram5testss_21test_telegram_bot_new0B7_
FNDA:1,_RNCNvNtNtCs68a4HstG1A7_22telegram_notifications8telegram5testss_25test_send_message_success0B7_
FNDA:1,_RNCNvNtNtCs68a4HstG1A7_22telegram_notifications8telegram5testss_31test_send_message_network_error0B7_
FNDA:1,_RNCNvNtNtCs68a4HstG1A7_22telegram_notifications8telegram5testss_34test_send_message_advanced_success0B7_
FNDA:1,_RNCNvNtNtCs68a4HstG1A7_22telegram_notifications8telegram5testss_36test_send_message_telegram_api_error0B7_
FNDA:1,_RNCNvNtNtCs68a4HstG1A7_22telegram_notifications8telegram5testss_39test_send_message_request_serialization0B7_
FNDA:1,_RNCNvNtNtCs68a4HstG1A7_22telegram_notifications8telegram5testss_40test_send_message_advanced_no_parse_mode0B7_
FNDA:1,_RNCNvNtNtCs68a4HstG1A7_22telegram_notifications8telegram5testss_44test_telegram_response_deserialization_error0B7_
FNDA:1,_RNCNvNtNtCs68a4HstG1A7_22telegram_notifications8telegram5testss_45test_send_message_calls_send_message_advanced0B7_
FNDA:1,_RNCNvNtNtCs68a4HstG1A7_22telegram_notifications8telegram5testss_46test_telegram_response_deserialization_success0B7_
FNDA:1,_RNCNvNtNtCs68a4HstG1A7_22telegram_notifications8telegram5testss_47test_send_message_request_serialization_minimal0B7_
FNDA:4,_RNvMNtCs68a4HstG1A7_22telegram_notifications8telegramNtB2_11TelegramBot12send_message
FNDA:6,_RNvMNtCs68a4HstG1A7_22telegram_notifications8telegramNtB2_11TelegramBot21send_message_advanced
FNDA:9,_RNvMNtCs68a4HstG1A7_22telegram_notifications8telegramNtB2_11TelegramBot3new
FNDA:2,_RNvMNtCs68a4HstG1A7_22telegram_notifications8telegramNtB2_11TelegramBot6get_me
FNDA:5,_RNCNCNvMNtCs68a4HstG1A7_22telegram_notifications8telegramNtB6_11TelegramBot21send_message_advanced00B8_
FNDA:0,_RNCNCNvMNtCs68a4HstG1A7_22telegram_notifications8telegramNtB6_11TelegramBot21send_message_advanced0s_0B8_
FNDA:0,_RNCNCNvMNtCs68a4HstG1A7_22telegram_notifications8telegramNtB6_11TelegramBot6get_me00B8_
FNDA:4,_RNCNvMNtCs68a4HstG1A7_22telegram_notifications8telegramNtB4_11TelegramBot12send_message0B6_
FNDA:6,_RNCNvMNtCs68a4HstG1A7_22telegram_notifications8telegramNtB4_11TelegramBot21send_message_advanced0B6_
FNDA:2,_RNCNvMNtCs68a4HstG1A7_22telegram_notifications8telegramNtB4_11TelegramBot6get_me0B6_
FNDA:8,_RNvNtNtCs68a4HstG1A7_22telegram_notifications8telegram5tests15create_test_bot
FNDA:1,_RNvNtNtCs68a4HstG1A7_22telegram_notifications8telegram5testss_17test_get_me_error
FNDA:1,_RNvNtNtCs68a4HstG1A7_22telegram_notifications8telegram5testss_19test_get_me_success
FNDA:1,_RNvNtNtCs68a4HstG1A7_22telegram_notifications8telegram5testss_21test_telegram_bot_new
FNDA:1,_RNvNtNtCs68a4HstG1A7_22telegram_notifications8telegram5testss_25test_send_message_success
FNDA:1,_RNvNtNtCs68a4HstG1A7_22telegram_notifications8telegram5testss_31test_send_message_network_error
FNDA:1,_RNvNtNtCs68a4HstG1A7_22telegram_notifications8telegram5testss_31test_telegram_api_base_constant
FNDA:1,_RNvNtNtCs68a4HstG1A7_22telegram_notifications8telegram5testss_34test_send_message_advanced_success
FNDA:1,_RNvNtNtCs68a4HstG1A7_22telegram_notifications8telegram5testss_36test_send_message_telegram_api_error
FNDA:1,_RNvNtNtCs68a4HstG1A7_22telegram_notifications8telegram5testss_39test_send_message_request_serialization
FNDA:1,_RNvNtNtCs68a4HstG1A7_22telegram_notifications8telegram5testss_40test_send_message_advanced_no_parse_mode
FNDA:1,_RNvNtNtCs68a4HstG1A7_22telegram_notifications8telegram5testss_44test_telegram_response_deserialization_error
FNDA:1,_RNvNtNtCs68a4HstG1A7_22telegram_notifications8telegram5testss_45test_send_message_calls_send_message_advanced
FNDA:1,_RNvNtNtCs68a4HstG1A7_22telegram_notifications8telegram5testss_46test_telegram_response_deserialization_success
FNDA:1,_RNvNtNtCs68a4HstG1A7_22telegram_notifications8telegram5testss_47test_send_message_request_serialization_minimal
FNF:39
FNH:37
DA:35,18
DA:36,18
DA:37,18
DA:38,18
DA:39,18
DA:40,18
DA:41,18
DA:43,8
DA:44,8
DA:45,8
DA:46,8
DA:48,12
DA:49,12
DA:50,12
DA:51,12
DA:52,12
DA:53,12
DA:54,12
DA:55,12
DA:56,12
DA:57,12
DA:58,12
DA:59,12
DA:60,2
DA:62,10
DA:66,12
DA:68,12
DA:69,12
DA:70,12
DA:71,12
DA:72,12
DA:73,12
DA:74,12
DA:76,12
DA:77,12
DA:78,12
DA:79,12
DA:81,10
DA:82,2
DA:83,2
DA:84,2
DA:85,2
DA:86,2
DA:89,8
DA:91,8
DA:92,12
DA:94,4
DA:95,4
DA:97,4
DA:98,4
DA:99,4
DA:100,4
DA:101,4
DA:102,4
DA:104,4
DA:105,4
DA:106,4
DA:107,4
DA:109,4
DA:110,2
DA:111,2
DA:112,2
DA:113,2
DA:114,2
DA:117,2
DA:119,2
DA:120,4
DA:130,16
DA:131,16
DA:132,16
DA:134,16
DA:135,16
DA:136,16
DA:139,2
DA:140,2
DA:141,2
DA:143,2
DA:144,2
DA:145,2
DA:148,2
DA:149,2
DA:152,2
DA:153,2
DA:154,2
DA:155,2
DA:156,2
DA:157,2
DA:158,2
DA:159,2
DA:160,2
DA:161,2
DA:162,2
DA:163,2
DA:164,2
DA:165,2
DA:166,2
DA:167,2
DA:168,2
DA:169,2
DA:170,2
DA:171,2
DA:172,2
DA:173,2
DA:174,2
DA:175,2
DA:177,2
DA:178,2
DA:180,2
DA:181,2
DA:182,2
DA:183,2
DA:185,2
DA:186,2
DA:189,2
DA:190,2
DA:192,2
DA:193,2
DA:194,2
DA:195,2
DA:196,2
DA:197,2
DA:198,2
DA:199,2
DA:200,2
DA:201,2
DA:202,2
DA:203,2
DA:204,2
DA:205,2
DA:206,2
DA:207,2
DA:208,2
DA:209,2
DA:210,2
DA:211,2
DA:212,2
DA:213,2
DA:214,2
DA:215,2
DA:216,2
DA:217,2
DA:218,2
DA:219,2
DA:220,2
DA:221,2
DA:222,2
DA:223,2
DA:224,2
DA:226,2
DA:227,2
DA:228,2
DA:229,2
DA:231,2
DA:232,2
DA:233,2
DA:235,2
DA:236,2
DA:239,2
DA:240,2
DA:242,2
DA:243,2
DA:244,2
DA:245,2
DA:246,2
DA:247,2
DA:248,2
DA:249,2
DA:250,2
DA:251,2
DA:252,2
DA:253,2
DA:254,2
DA:255,2
DA:256,2
DA:257,2
DA:258,2
DA:259,2
DA:260,2
DA:261,2
DA:262,2
DA:263,2
DA:264,2
DA:265,2
DA:266,2
DA:267,2
DA:268,2
DA:269,2
DA:270,2
DA:271,2
DA:272,2
DA:274,2
DA:275,2
DA:276,2
DA:277,2
DA:279,2
DA:280,2
DA:281,2
DA:284,2
DA:285,2
DA:287,2
DA:288,2
DA:289,2
DA:290,2
DA:291,2
DA:292,2
DA:293,2
DA:294,2
DA:295,2
DA:296,2
DA:297,2
DA:298,2
DA:299,2
DA:300,2
DA:301,2
DA:302,2
DA:303,2
DA:305,2
DA:306,2
DA:308,2
DA:309,2
DA:310,2
DA:311,2
DA:313,2
DA:314,2
DA:317,2
DA:318,2
DA:320,2
DA:321,2
DA:322,2
DA:323,2
DA:324,2
DA:325,2
DA:326,2
DA:327,2
DA:329,2
DA:330,2
DA:332,2
DA:334,2
DA:335,2
DA:338,2
DA:339,2
DA:341,2
DA:342,2
DA:343,2
DA:344,2
DA:345,2
DA:346,2
DA:347,2
DA:348,2
DA:349,2
DA:350,2
DA:351,2
DA:352,2
DA:353,2
DA:354,2
DA:355,2
DA:356,2
DA:357,2
DA:358,2
DA:359,2
DA:360,2
DA:361,2
DA:363,2
DA:364,2
DA:366,2
DA:367,2
DA:368,2
DA:369,2
DA:371,2
DA:372,2
DA:373,2
DA:374,2
DA:375,2
DA:376,2
DA:377,2
DA:378,2
DA:381,2
DA:382,2
DA:384,2
DA:385,2
DA:386,2
DA:387,2
DA:388,2
DA:389,2
DA:390,2
DA:391,2
DA:392,2
DA:393,2
DA:394,2
DA:395,2
DA:396,2
DA:397,2
DA:399,2
DA:400,2
DA:402,2
DA:403,2
DA:404,2
DA:405,2
DA:406,2
DA:407,2
DA:409,2
DA:411,2
DA:412,2
DA:415,2
DA:416,2
DA:417,2
DA:418,2
DA:419,2
DA:420,2
DA:421,2
DA:423,2
DA:424,2
DA:426,2
DA:427,2
DA:428,2
DA:429,2
DA:430,2
DA:433,2
DA:434,2
DA:435,2
DA:436,2
DA:437,2
DA:438,2
DA:439,2
DA:441,2
DA:442,2
DA:444,2
DA:445,2
DA:446,2
DA:447,2
DA:448,2
DA:451,2
DA:452,2
DA:453,2
DA:454,2
DA:455,2
DA:456,2
DA:457,2
DA:458,2
DA:459,2
DA:461,2
DA:465,2
DA:467,2
DA:468,2
DA:469,2
DA:470,2
DA:471,2
DA:474,2
DA:475,2
DA:476,2
DA:477,2
DA:478,2
DA:481,2
DA:483,2
DA:484,2
DA:485,2
DA:487,2
DA:489,2
DA:490,2
DA:493,2
DA:494,2
DA:497,2
DA:498,2
DA:499,2
DA:500,2
DA:501,2
DA:502,2
DA:503,2
DA:504,2
DA:505,2
DA:506,2
DA:507,2
DA:508,2
DA:509,2
DA:510,2
DA:511,2
DA:512,2
DA:513,2
DA:514,2
DA:515,2
DA:516,2
DA:517,2
DA:518,2
DA:519,2
DA:520,2
DA:521,2
DA:522,2
DA:523,2
DA:524,2
DA:525,2
DA:526,2
DA:527,2
DA:528,2
DA:530,2
DA:531,2
DA:533,2
DA:534,2
DA:535,2
DA:538,2
DA:539,2
DA:540,2
BRF:0
BRH:0
LF:439
LH:436
end_of_record